target datalayout = "e-m:e-p270:32:32-p271:32:32-p272:64:64-i64:64-i128:128-f80:128-n8:16:32:64-S128"
target triple = "x86_64-pc-linux-gnu"

%struct._packet_info = type { ptr, ptr, i32, i32, %struct.nstime_t, %struct.nstime_t, %struct.nstime_t, i8, ptr, ptr, ptr, ptr, %struct._address, %struct._address, %struct._address, %struct._address, %struct._address, %struct._address, i32, ptr, i8, [3 x i8], %struct.anon, i32, i32, i32, i32, ptr, i8, ptr, ptr, i16, i16, i32, i32, i16, i32, i32, ptr, ptr, ptr, i8, i8, i16, i16, i16, i32, i16, i16, ptr, ptr, ptr, ptr, ptr, i32, i32 }
%struct.nstime_t = type { i64, i32 }
%struct._address = type { i32, i32, ptr, ptr }
%struct.anon = type { i8, [3 x i8] }
%struct.cip_safety_epath_info = type { i8, i32, i32, i32, i16, i16, i8, %struct.cip_connection_triad, float }
%struct.cip_connection_triad = type { i16, i16, i32 }
%struct.cip_safety_info = type { i32, ptr, i8 }
%struct.cip_conn_info = type { %struct.cip_connection_triad, i8, i32, %struct.cip_safety_epath_info, i32, ptr, %struct.cip_simple_request_info, i32, i32, i32, %struct.cip_connID_info, %struct.cip_connID_info, i32, i8, i8 }
%struct.cip_simple_request_info = type { i32, i32, i32, i32, i32, i32, i32, i32, i8 }
%struct.cip_connID_info = type { i32, %struct._address, i16, i32, i32, i32, i32, i32, %struct.nstime_t }
%struct._frame_data = type <{ i32, i32, i32, i32, i32, [4 x i8], i64, ptr, ptr, ptr, i8, i16, [5 x i8], %struct.nstime_t, %struct.nstime_t, i32, i32 }>
%struct.cip_safety_packet_data = type { i16 }

@proto_cipsafety = internal global i32 0, align 4

; Function Attrs: null_pointer_is_valid sspstrong uwtable
define internal ptr @get_timestamp_packet_data(ptr noundef %0, ptr noundef %1, i16 noundef zeroext %2) #0 {
  %4 = alloca ptr, align 8
  %5 = alloca ptr, align 8
  %6 = alloca i16, align 2
  %7 = alloca ptr, align 8
  store ptr %0, ptr %4, align 8
  store ptr %1, ptr %5, align 8
  store i16 %2, ptr %6, align 2
  call void @llvm.lifetime.start.p0(i64 8, ptr %7) #11
  store ptr null, ptr %7, align 8
  %8 = load ptr, ptr %4, align 8
  %9 = getelementptr inbounds nuw %struct._packet_info, ptr %8, i32 0, i32 8
  %10 = load ptr, ptr %9, align 8
  %11 = getelementptr inbounds nuw %struct._frame_data, ptr %10, i32 0, i32 11
  %12 = load i16, ptr %11, align 1
  %13 = lshr i16 %12, 3
  %14 = and i16 %13, 1
  %15 = zext i16 %14 to i32
  %16 = icmp ne i32 %15, 0
  br i1 %16, label %78, label %17

17:                                               ; preds = %3
  %18 = call ptr @wmem_file_scope()
  %19 = call noalias ptr @wmem_alloc0(ptr noundef %18, i64 noundef 2) #12
  store ptr %19, ptr %7, align 8
  %20 = load i16, ptr %6, align 2
  %21 = zext i16 %20 to i32
  %22 = icmp eq i32 %21, 0
  br i1 %22, label %23, label %34

23:                                               ; preds = %17
  %24 = load ptr, ptr %5, align 8
  %25 = getelementptr inbounds nuw %struct.cip_safety_info, ptr %24, i32 0, i32 1
  %26 = load ptr, ptr %25, align 8
  %27 = getelementptr inbounds nuw %struct.cip_conn_info, ptr %26, i32 0, i32 3
  %28 = getelementptr inbounds nuw %struct.cip_safety_epath_info, ptr %27, i32 0, i32 6
  %29 = load i8, ptr %28, align 4, !range !13, !noundef !14
  %30 = trunc i8 %29 to i1
  br i1 %30, label %34, label %31

31:                                               ; preds = %23
  %32 = load ptr, ptr %7, align 8
  %33 = getelementptr inbounds nuw %struct.cip_safety_packet_data, ptr %32, i32 0, i32 0
  store i16 0, ptr %33, align 2
  br label %73

34:                                               ; preds = %23, %17
  %35 = load ptr, ptr %5, align 8
  %36 = getelementptr inbounds nuw %struct.cip_safety_info, ptr %35, i32 0, i32 1
  %37 = load ptr, ptr %36, align 8
  %38 = getelementptr inbounds nuw %struct.cip_conn_info, ptr %37, i32 0, i32 3
  %39 = getelementptr inbounds nuw %struct.cip_safety_epath_info, ptr %38, i32 0, i32 6
  store i8 1, ptr %39, align 4
  %40 = load i16, ptr %6, align 2
  %41 = zext i16 %40 to i32
  %42 = load ptr, ptr %5, align 8
  %43 = getelementptr inbounds nuw %struct.cip_safety_info, ptr %42, i32 0, i32 1
  %44 = load ptr, ptr %43, align 8
  %45 = getelementptr inbounds nuw %struct.cip_conn_info, ptr %44, i32 0, i32 3
  %46 = getelementptr inbounds nuw %struct.cip_safety_epath_info, ptr %45, i32 0, i32 5
  %47 = load i16, ptr %46, align 2
  %48 = zext i16 %47 to i32
  %49 = icmp slt i32 %41, %48
  br i1 %49, label %50, label %58

50:                                               ; preds = %34
  %51 = load ptr, ptr %5, align 8
  %52 = getelementptr inbounds nuw %struct.cip_safety_info, ptr %51, i32 0, i32 1
  %53 = load ptr, ptr %52, align 8
  %54 = getelementptr inbounds nuw %struct.cip_conn_info, ptr %53, i32 0, i32 3
  %55 = getelementptr inbounds nuw %struct.cip_safety_epath_info, ptr %54, i32 0, i32 4
  %56 = load i16, ptr %55, align 8
  %57 = add i16 %56, 1
  store i16 %57, ptr %55, align 8
  br label %58

58:                                               ; preds = %50, %34
  %59 = load ptr, ptr %5, align 8
  %60 = getelementptr inbounds nuw %struct.cip_safety_info, ptr %59, i32 0, i32 1
  %61 = load ptr, ptr %60, align 8
  %62 = getelementptr inbounds nuw %struct.cip_conn_info, ptr %61, i32 0, i32 3
  %63 = getelementptr inbounds nuw %struct.cip_safety_epath_info, ptr %62, i32 0, i32 4
  %64 = load i16, ptr %63, align 8
  %65 = load ptr, ptr %7, align 8
  %66 = getelementptr inbounds nuw %struct.cip_safety_packet_data, ptr %65, i32 0, i32 0
  store i16 %64, ptr %66, align 2
  %67 = load i16, ptr %6, align 2
  %68 = load ptr, ptr %5, align 8
  %69 = getelementptr inbounds nuw %struct.cip_safety_info, ptr %68, i32 0, i32 1
  %70 = load ptr, ptr %69, align 8
  %71 = getelementptr inbounds nuw %struct.cip_conn_info, ptr %70, i32 0, i32 3
  %72 = getelementptr inbounds nuw %struct.cip_safety_epath_info, ptr %71, i32 0, i32 5
  store i16 %67, ptr %72, align 2
  br label %73

73:                                               ; preds = %58, %31
  %74 = call ptr @wmem_file_scope()
  %75 = load ptr, ptr %4, align 8
  %76 = load i32, ptr @proto_cipsafety, align 4
  %77 = load ptr, ptr %7, align 8
  call void @p_add_proto_data(ptr noundef %74, ptr noundef %75, i32 noundef %76, i32 noundef 0, ptr noundef %77)
  br label %83

78:                                               ; preds = %3
  %79 = call ptr @wmem_file_scope()
  %80 = load ptr, ptr %4, align 8
  %81 = load i32, ptr @proto_cipsafety, align 4
  %82 = call ptr @p_get_proto_data(ptr noundef %79, ptr noundef %80, i32 noundef %81, i32 noundef 0)
  store ptr %82, ptr %7, align 8
  br label %83

83:                                               ; preds = %78, %73
  %84 = load ptr, ptr %7, align 8
  call void @llvm.lifetime.end.p0(i64 8, ptr %7) #11
  ret ptr %84
}