; Function Attrs: null_pointer_is_valid sspstrong uwtable
define internal fastcc ptr @get_timestamp_packet_data(ptr noundef %0, ptr noundef readonly captures(none) %1, i16 noundef zeroext %2) unnamed_addr #2 {
  %4 = getelementptr inbounds nuw i8, ptr %0, i64 80
  %5 = load ptr, ptr %4, align 8
  %6 = getelementptr inbounds nuw i8, ptr %5, i64 57
  %7 = load i16, ptr %6, align 1
  %8 = and i16 %7, 8
  %.not = icmp eq i16 %8, 0
  %9 = tail call ptr @wmem_file_scope()
  br i1 %.not, label %10, label %38

10:                                               ; preds = %3
  %11 = tail call noalias dereferenceable_or_null(2) ptr @wmem_alloc0(ptr noundef %9, i64 noundef 2) #8
  %12 = icmp eq i16 %2, 0
  %13 = getelementptr inbounds nuw i8, ptr %1, i64 8
  %14 = load ptr, ptr %13, align 8
  br i1 %12, label %15, label %._crit_edge

15:                                               ; preds = %10
  %16 = getelementptr inbounds nuw i8, ptr %14, i64 36
  %17 = load i8, ptr %16, align 4, !range !13, !noundef !14
  %18 = trunc nuw i8 %17 to i1
  br i1 %18, label %._crit_edge, label %19

19:                                               ; preds = %15
  store i16 0, ptr %11, align 2
  br label %35

._crit_edge:                                      ; preds = %10, %15
  %20 = getelementptr inbounds nuw i8, ptr %1, i64 8
  %21 = getelementptr inbounds nuw i8, ptr %14, i64 36
  store i8 1, ptr %21, align 4
  %22 = load ptr, ptr %20, align 8
  %23 = getelementptr inbounds nuw i8, ptr %22, i64 34
  %24 = load i16, ptr %23, align 2
  %25 = icmp ult i16 %2, %24
  br i1 %25, label %26, label %30

26:                                               ; preds = %._crit_edge
  %27 = getelementptr inbounds nuw i8, ptr %22, i64 32
  %28 = load i16, ptr %27, align 8
  %29 = add i16 %28, 1
  store i16 %29, ptr %27, align 8
  %.pre15 = load ptr, ptr %20, align 8
  br label %30

30:                                               ; preds = %26, %._crit_edge
  %31 = phi ptr [ %.pre15, %26 ], [ %22, %._crit_edge ]
  %32 = getelementptr inbounds nuw i8, ptr %31, i64 32
  %33 = load i16, ptr %32, align 8
  store i16 %33, ptr %11, align 2
  %34 = getelementptr inbounds nuw i8, ptr %31, i64 34
  store i16 %2, ptr %34, align 2
  br label %35

35:                                               ; preds = %30, %19
  %36 = tail call ptr @wmem_file_scope()
  %37 = load i32, ptr @proto_cipsafety, align 4
  tail call void @p_add_proto_data(ptr noundef %36, ptr noundef %0, i32 noundef %37, i32 noundef 0, ptr noundef %11)
  br label %41

38:                                               ; preds = %3
  %39 = load i32, ptr @proto_cipsafety, align 4
  %40 = tail call ptr @p_get_proto_data(ptr noundef %9, ptr noundef %0, i32 noundef %39, i32 noundef 0)
  br label %41

41:                                               ; preds = %38, %35
  %.0 = phi ptr [ %40, %38 ], [ %11, %35 ]
  ret ptr %.0
}